target datalayout = "e-m:e-p270:32:32-p271:32:32-p272:64:64-i64:64-i128:128-f80:128-n8:16:32:64-S128"
target triple = "x86_64-pc-linux-gnu"

%struct.srpsrvparm_st = type { ptr, ptr, ptr }
%struct.SRP_user_pwd_st = type { ptr, ptr, ptr, ptr, ptr, ptr }

@.str.3 = private unnamed_addr constant [16 x i8] c"LOOKUP done %s\0A\00", align 1
@.str.4 = private unnamed_addr constant [23 x i8] c"LOOKUP not successful\0A\00", align 1

; Function Attrs: nounwind uwtable
define void @lookup_srp_user(ptr noundef %0, ptr noundef %1) #0 {
  %3 = alloca ptr, align 8
  %4 = alloca ptr, align 8
  store ptr %0, ptr %3, align 8, !tbaa !32
  store ptr %1, ptr %4, align 8, !tbaa !15
  %5 = load ptr, ptr %3, align 8, !tbaa !32
  %6 = getelementptr inbounds nuw %struct.srpsrvparm_st, ptr %5, i32 0, i32 2
  %7 = load ptr, ptr %6, align 8, !tbaa !38
  call void @SRP_user_pwd_free(ptr noundef %7)
  %8 = load ptr, ptr %3, align 8, !tbaa !32
  %9 = getelementptr inbounds nuw %struct.srpsrvparm_st, ptr %8, i32 0, i32 1
  %10 = load ptr, ptr %9, align 8, !tbaa !34
  %11 = load ptr, ptr %3, align 8, !tbaa !32
  %12 = getelementptr inbounds nuw %struct.srpsrvparm_st, ptr %11, i32 0, i32 0
  %13 = load ptr, ptr %12, align 8, !tbaa !39
  %14 = call ptr @SRP_VBASE_get1_by_user(ptr noundef %10, ptr noundef %13)
  %15 = load ptr, ptr %3, align 8, !tbaa !32
  %16 = getelementptr inbounds nuw %struct.srpsrvparm_st, ptr %15, i32 0, i32 2
  store ptr %14, ptr %16, align 8, !tbaa !38
  %17 = load ptr, ptr %3, align 8, !tbaa !32
  %18 = getelementptr inbounds nuw %struct.srpsrvparm_st, ptr %17, i32 0, i32 2
  %19 = load ptr, ptr %18, align 8, !tbaa !38
  %20 = icmp ne ptr %19, null
  br i1 %20, label %21, label %29

21:                                               ; preds = %2
  %22 = load ptr, ptr %4, align 8, !tbaa !15
  %23 = load ptr, ptr %3, align 8, !tbaa !32
  %24 = getelementptr inbounds nuw %struct.srpsrvparm_st, ptr %23, i32 0, i32 2
  %25 = load ptr, ptr %24, align 8, !tbaa !38
  %26 = getelementptr inbounds nuw %struct.SRP_user_pwd_st, ptr %25, i32 0, i32 5
  %27 = load ptr, ptr %26, align 8, !tbaa !47
  %28 = call i32 (ptr, ptr, ...) @BIO_printf(ptr noundef %22, ptr noundef @.str.3, ptr noundef %27)
  br label %32

29:                                               ; preds = %2
  %30 = load ptr, ptr %4, align 8, !tbaa !15
  %31 = call i32 (ptr, ptr, ...) @BIO_printf(ptr noundef %30, ptr noundef @.str.4)
  br label %32

32:                                               ; preds = %29, %21
  ret void
}