; Function Attrs: nounwind uwtable
define void @lookup_srp_user(ptr noundef captures(none) %0, ptr noundef %1) local_unnamed_addr #0 {
  %3 = getelementptr inbounds nuw i8, ptr %0, i64 16
  %4 = load ptr, ptr %3, align 8, !tbaa !29
  tail call void @SRP_user_pwd_free(ptr noundef %4) #4
  %5 = getelementptr inbounds nuw i8, ptr %0, i64 8
  %6 = load ptr, ptr %5, align 8, !tbaa !25
  %7 = load ptr, ptr %0, align 8, !tbaa !30
  %8 = tail call ptr @SRP_VBASE_get1_by_user(ptr noundef %6, ptr noundef %7) #4
  store ptr %8, ptr %3, align 8, !tbaa !29
  %.not = icmp eq ptr %8, null
  br i1 %.not, label %13, label %9

9:                                                ; preds = %2
  %10 = getelementptr inbounds nuw i8, ptr %8, i64 40
  %11 = load ptr, ptr %10, align 8, !tbaa !37
  %12 = tail call i32 (ptr, ptr, ...) @BIO_printf(ptr noundef %1, ptr noundef nonnull @.str.3, ptr noundef %11) #4
  br label %15

13:                                               ; preds = %2
  %14 = tail call i32 (ptr, ptr, ...) @BIO_printf(ptr noundef %1, ptr noundef nonnull @.str.4) #4
  br label %15

15:                                               ; preds = %13, %9
  ret void
}